Certificate:
    Data:
        Version: 3 (0x2)
        Serial Number: 1 (0x1)
        Signature Algorithm: sha1WithRSAEncryption
        Issuer: DC=org, DC=lacave, O=Lacave, OU=Lacave Root CA, CN=Lacave Root CA
        Validity
            Not Before: Mar 18 20:20:56 2020 GMT
            Not After : Mar 18 20:20:56 2030 GMT
        Subject: DC=org, DC=lacave, O=Lacave, OU=Lacave Root CA, CN=Lacave Root CA
        Subject Public Key Info:
            Public Key Algorithm: rsaEncryption
                RSA Public-Key: (2048 bit)
                Modulus:
                    00:c7:01:af:9e:16:b6:4c:3f:aa:f2:a6:2e:64:03:
                    01:de:cb:21:60:51:a7:73:16:f3:9f:25:aa:f3:f9:
                    d2:43:52:4f:4f:ef:3b:ba:fd:c3:4f:97:c6:08:5f:
                    54:08:ff:31:80:68:4d:b5:c7:f6:a4:c3:d8:cc:7c:
                    69:1a:af:07:13:77:b3:f8:e5:21:d2:f7:34:20:50:
                    8b:3e:ec:3f:e2:cc:30:5f:2c:ba:8e:fe:a8:d3:cb:
                    f7:1a:35:95:71:40:af:58:da:cc:e8:1d:d5:4b:33:
                    c2:01:2e:e6:90:cf:24:8f:6c:1f:af:bc:81:d8:60:
                    b2:9e:59:ee:7a:d6:da:d1:6e:78:e9:d7:a5:96:df:
                    8c:f3:a8:2b:3a:2b:9f:82:89:d0:19:31:71:eb:73:
                    63:e6:cc:d3:42:1c:c2:42:a6:37:af:ed:07:f2:03:
                    1b:a6:9b:7c:0d:e2:bb:b7:53:dd:c2:54:cb:2e:90:
                    cf:e0:0d:f0:06:e4:d2:98:a4:62:e1:a0:2f:bf:0d:
                    83:ea:6b:e9:85:40:54:4d:89:88:49:93:c6:d7:31:
                    be:80:d5:42:4a:fb:5d:0a:43:5a:11:df:b2:25:9e:
                    98:df:b7:b0:9f:cc:18:2b:44:b2:10:9d:03:e8:84:
                    9d:6f:84:44:1f:0f:44:ed:0e:1c:98:5e:a0:0c:e6:
                    1b:09
                Exponent: 65537 (0x10001)
        X509v3 extensions:
            X509v3 Key Usage: critical
                Certificate Sign, CRL Sign
            X509v3 Basic Constraints: critical
                CA:TRUE
            X509v3 Subject Key Identifier: 
                55:72:B1:DA:ED:93:38:5A:ED:D5:60:82:DF:92:99:EC:6A:A0:D4:A6
            X509v3 Authority Key Identifier: 
                keyid:55:72:B1:DA:ED:93:38:5A:ED:D5:60:82:DF:92:99:EC:6A:A0:D4:A6

    Signature Algorithm: sha1WithRSAEncryption
         34:1a:76:3f:c2:6b:82:e9:e6:ee:39:14:0e:d9:b1:92:98:74:
         59:dc:d8:af:e2:5f:60:a4:0c:95:f9:da:ff:23:ff:19:3c:1a:
         d8:d0:ed:0d:6f:82:a8:53:ba:9b:bb:3a:88:e5:9b:83:cf:4c:
         f4:e8:20:6d:10:4d:52:96:0b:ae:87:52:7c:82:ef:b9:0e:2b:
         ea:33:49:41:d7:02:51:d5:78:7d:af:66:d1:f8:fc:8f:4c:6f:
         82:31:70:5a:95:49:0b:bf:1c:f5:33:0f:0c:e9:d0:c7:a1:b8:
         0b:a7:c0:5e:a6:95:86:36:c3:62:ed:c2:83:0f:b0:16:61:9c:
         53:23:9e:9e:f3:b1:2f:c7:45:f8:83:6d:06:00:10:2d:ce:24:
         b8:6d:c9:bc:fd:01:95:ea:db:93:cf:bf:aa:48:ca:ec:bc:08:
         a2:30:67:4a:95:18:de:71:15:ba:78:19:2d:8b:5a:34:b9:6e:
         91:57:32:5d:5b:8c:0c:7b:51:d0:60:5e:f7:7c:43:91:49:f7:
         98:5a:a7:ad:36:ae:3d:28:d2:59:83:98:b4:c8:38:c5:a8:f2:
         9c:a5:f4:9f:bc:e3:11:2a:a4:9f:06:4d:7a:c4:97:5d:d0:92:
         68:c8:41:5f:7a:48:f2:84:e9:2b:c3:fe:82:84:75:d8:63:0c:
         e0:87:e6:b2
-----BEGIN CERTIFICATE-----
MIIDvjCCAqagAwIBAgIBATANBgkqhkiG9w0BAQUFADBwMRMwEQYKCZImiZPyLGQB
GRYDb3JnMRYwFAYKCZImiZPyLGQBGRYGbGFjYXZlMQ8wDQYDVQQKDAZMYWNhdmUx
FzAVBgNVBAsMDkxhY2F2ZSBSb290IENBMRcwFQYDVQQDDA5MYWNhdmUgUm9vdCBD
QTAeFw0yMDAzMTgyMDIwNTZaFw0zMDAzMTgyMDIwNTZaMHAxEzARBgoJkiaJk/Is
ZAEZFgNvcmcxFjAUBgoJkiaJk/IsZAEZFgZsYWNhdmUxDzANBgNVBAoMBkxhY2F2
ZTEXMBUGA1UECwwOTGFjYXZlIFJvb3QgQ0ExFzAVBgNVBAMMDkxhY2F2ZSBSb290
IENBMIIBIjANBgkqhkiG9w0BAQEFAAOCAQ8AMIIBCgKCAQEAxwGvnha2TD+q8qYu
ZAMB3sshYFGncxbznyWq8/nSQ1JPT+87uv3DT5fGCF9UCP8xgGhNtcf2pMPYzHxp
Gq8HE3ez+OUh0vc0IFCLPuw/4swwXyy6jv6o08v3GjWVcUCvWNrM6B3VSzPCAS7m
kM8kj2wfr7yB2GCynlnuetba0W546dellt+M86grOiufgonQGTFx63Nj5szTQhzC
QqY3r+0H8gMbppt8DeK7t1PdwlTLLpDP4A3wBuTSmKRi4aAvvw2D6mvphUBUTYmI
SZPG1zG+gNVCSvtdCkNaEd+yJZ6Y37ewn8wYK0SyEJ0D6ISdb4REHw9E7Q4cmF6g
DOYbCQIDAQABo2MwYTAOBgNVHQ8BAf8EBAMCAQYwDwYDVR0TAQH/BAUwAwEB/zAd
BgNVHQ4EFgQUVXKx2u2TOFrt1WCC35KZ7Gqg1KYwHwYDVR0jBBgwFoAUVXKx2u2T
OFrt1WCC35KZ7Gqg1KYwDQYJKoZIhvcNAQEFBQADggEBADQadj/Ca4Lp5u45FA7Z
sZKYdFnc2K/iX2CkDJX52v8j/xk8GtjQ7Q1vgqhTupu7Oojlm4PPTPToIG0QTVKW
C66HUnyC77kOK+ozSUHXAlHVeH2vZtH4/I9Mb4IxcFqVSQu/HPUzDwzp0MehuAun
wF6mlYY2w2LtwoMPsBZhnFMjnp7zsS/HRfiDbQYAEC3OJLhtybz9AZXq25PPv6pI
yuy8CKIwZ0qVGN5xFbp4GS2LWjS5bpFXMl1bjAx7UdBgXvd8Q5FJ95hap602rj0o
0lmDmLTIOMWo8pyl9J+84xEqpJ8GTXrEl13QkmjIQV96SPKE6SvD/oKEddhjDOCH
5rI=
-----END CERTIFICATE-----
Certificate:
    Data:
        Version: 3 (0x2)
        Serial Number: 2 (0x2)
        Signature Algorithm: sha1WithRSAEncryption
        Issuer: DC=org, DC=lacave, O=Lacave, OU=Lacave Root CA, CN=Lacave Root CA
        Validity
            Not Before: Mar 18 20:30:34 2020 GMT
            Not After : Mar 18 20:30:34 2030 GMT
        Subject: DC=org, DC=lacave, O=Lacave, OU=Lacave Signing CA, CN=Lacave Signing CA
        Subject Public Key Info:
            Public Key Algorithm: rsaEncryption
                RSA Public-Key: (2048 bit)
                Modulus:
                    00:c0:e2:83:38:48:d0:84:42:5f:67:32:09:c7:66:
                    11:bd:0c:3b:64:ce:aa:28:b2:5e:a8:a1:c5:b7:c5:
                    c5:7c:61:d8:55:d7:31:ae:04:7f:5c:bd:44:66:28:
                    c9:8f:45:ff:5e:4e:31:ce:4a:32:a7:32:15:a8:1c:
                    8b:8d:dc:46:90:0a:e4:df:c3:3c:f7:9b:06:71:3c:
                    88:0b:5d:da:84:0d:26:69:06:1e:6e:71:12:f4:96:
                    30:2c:78:bc:b1:24:e4:ec:45:fe:8b:f0:00:d6:48:
                    61:77:4d:77:c3:a8:20:35:69:46:0b:7a:ea:19:f2:
                    8b:4f:a4:b3:55:a3:f9:a0:ec:28:57:68:8e:c2:b6:
                    fa:50:a7:82:bc:32:ad:cb:5d:a2:fd:1f:07:d2:c3:
                    6f:aa:0d:89:b6:f0:5d:5b:95:94:5c:5b:2e:e2:3b:
                    09:ef:ae:70:b9:35:f4:3d:dd:d8:d7:d2:51:36:1e:
                    27:a7:ba:f6:da:74:43:93:c0:a2:c4:c3:80:24:a4:
                    2d:9c:33:cb:f3:0f:34:ae:8e:23:28:b3:98:55:f4:
                    cd:cf:ef:d1:4d:74:64:f8:52:d9:9e:50:f3:b3:8e:
                    28:79:0e:88:e6:bb:d8:b6:3b:0a:8a:83:d1:e3:13:
                    9d:46:be:e4:d8:b4:97:88:8b:f9:9c:19:a7:7f:c4:
                    7e:cf
                Exponent: 65537 (0x10001)
        X509v3 extensions:
            X509v3 Key Usage: critical
                Certificate Sign, CRL Sign
            X509v3 Basic Constraints: critical
                CA:TRUE, pathlen:0
            X509v3 Subject Key Identifier: 
                39:6F:12:4F:2A:A0:08:C3:20:6D:10:9F:84:09:15:B2:B6:0A:9A:E5
            X509v3 Authority Key Identifier: 
                keyid:55:72:B1:DA:ED:93:38:5A:ED:D5:60:82:DF:92:99:EC:6A:A0:D4:A6

    Signature Algorithm: sha1WithRSAEncryption
         b7:58:58:3c:86:84:67:f6:4c:cc:ea:a8:ae:cc:1f:f7:dc:e6:
         50:41:c5:d7:13:18:bd:b3:09:9e:3f:aa:ea:c2:f1:96:7f:ec:
         f8:8d:8a:fe:d7:8b:20:a7:06:91:a6:6a:51:ba:c2:0c:44:44:
         4f:5c:35:f8:b7:1e:59:07:62:87:48:a2:8b:ee:07:9e:11:da:
         00:bc:0d:25:15:13:69:8f:dd:44:c3:8b:85:01:8f:b7:e0:c9:
         4d:a8:4f:64:01:bd:13:2a:bc:e6:83:05:3a:6b:e2:3c:7e:ea:
         db:f8:41:62:a6:7b:b6:2c:7d:e6:56:9b:a5:94:90:b6:51:b0:
         84:7f:94:93:a3:af:ea:80:6c:c2:92:0f:38:c5:46:07:8a:f8:
         6e:9b:8e:bf:42:46:e0:45:a5:dd:d2:ef:02:e2:a0:7f:25:9b:
         00:af:e7:c2:aa:12:6f:ee:fc:4a:e5:3a:28:b8:46:d3:67:fb:
         a3:bd:64:1a:ef:67:4d:29:fd:32:9c:b6:9b:a8:22:a9:11:fd:
         b5:6e:97:fd:61:35:63:46:d4:3b:8a:de:70:9a:d4:b5:9f:1d:
         39:08:9c:92:96:bc:25:c3:4e:b2:4b:72:d2:6d:7f:1d:37:96:
         f2:aa:96:69:cb:5b:e7:45:05:7f:86:1d:f6:c7:79:61:df:a4:
         ad:83:5d:de
-----BEGIN CERTIFICATE-----
MIIDxzCCAq+gAwIBAgIBAjANBgkqhkiG9w0BAQUFADBwMRMwEQYKCZImiZPyLGQB
GRYDb3JnMRYwFAYKCZImiZPyLGQBGRYGbGFjYXZlMQ8wDQYDVQQKDAZMYWNhdmUx
FzAVBgNVBAsMDkxhY2F2ZSBSb290IENBMRcwFQYDVQQDDA5MYWNhdmUgUm9vdCBD
QTAeFw0yMDAzMTgyMDMwMzRaFw0zMDAzMTgyMDMwMzRaMHYxEzARBgoJkiaJk/Is
ZAEZFgNvcmcxFjAUBgoJkiaJk/IsZAEZFgZsYWNhdmUxDzANBgNVBAoMBkxhY2F2
ZTEaMBgGA1UECwwRTGFjYXZlIFNpZ25pbmcgQ0ExGjAYBgNVBAMMEUxhY2F2ZSBT
aWduaW5nIENBMIIBIjANBgkqhkiG9w0BAQEFAAOCAQ8AMIIBCgKCAQEAwOKDOEjQ
hEJfZzIJx2YRvQw7ZM6qKLJeqKHFt8XFfGHYVdcxrgR/XL1EZijJj0X/Xk4xzkoy
pzIVqByLjdxGkArk38M895sGcTyIC13ahA0maQYebnES9JYwLHi8sSTk7EX+i/AA
1khhd013w6ggNWlGC3rqGfKLT6SzVaP5oOwoV2iOwrb6UKeCvDKty12i/R8H0sNv
qg2JtvBdW5WUXFsu4jsJ765wuTX0Pd3Y19JRNh4np7r22nRDk8CixMOAJKQtnDPL
8w80ro4jKLOYVfTNz+/RTXRk+FLZnlDzs44oeQ6I5rvYtjsKioPR4xOdRr7k2LSX
iIv5nBmnf8R+zwIDAQABo2YwZDAOBgNVHQ8BAf8EBAMCAQYwEgYDVR0TAQH/BAgw
BgEB/wIBADAdBgNVHQ4EFgQUOW8STyqgCMMgbRCfhAkVsrYKmuUwHwYDVR0jBBgw
FoAUVXKx2u2TOFrt1WCC35KZ7Gqg1KYwDQYJKoZIhvcNAQEFBQADggEBALdYWDyG
hGf2TMzqqK7MH/fc5lBBxdcTGL2zCZ4/qurC8ZZ/7PiNiv7XiyCnBpGmalG6wgxE
RE9cNfi3HlkHYodIoovuB54R2gC8DSUVE2mP3UTDi4UBj7fgyU2oT2QBvRMqvOaD
BTpr4jx+6tv4QWKme7YsfeZWm6WUkLZRsIR/lJOjr+qAbMKSDzjFRgeK+G6bjr9C
RuBFpd3S7wLioH8lmwCv58KqEm/u/ErlOii4RtNn+6O9ZBrvZ00p/TKctpuoIqkR
/bVul/1hNWNG1DuK3nCa1LWfHTkInJKWvCXDTrJLctJtfx03lvKqlmnLW+dFBX+G
HfbHeWHfpK2DXd4=
-----END CERTIFICATE-----
